; Function Attrs: mustprogress uwtable
define dso_local void @_ZNK7V3Sched17VirtIfaceTriggers18makeIfaceToSensMapEP10AstNetlistmP11AstVarScope(ptr dead_on_unwind noalias writable sret(%"class.std::map") align 8 %0, ptr nocapture noundef nonnull readonly align 8 dereferenceable(24) %1, ptr noundef %2, i64 noundef %3, ptr noundef %4) local_unnamed_addr #3 align 2 personality ptr @__gxx_personality_v0 {
  %6 = alloca %"struct.std::pair.5", align 8
  %7 = getelementptr inbounds i8, ptr %0, i64 8
  store i32 0, ptr %7, align 8
  %8 = getelementptr inbounds i8, ptr %0, i64 16
  store ptr null, ptr %8, align 8
  %9 = getelementptr inbounds i8, ptr %0, i64 24
  store ptr %7, ptr %9, align 8
  %10 = getelementptr inbounds i8, ptr %0, i64 32
  store ptr %7, ptr %10, align 8
  %11 = getelementptr inbounds i8, ptr %0, i64 40
  store i64 0, ptr %11, align 8
  %12 = load ptr, ptr %1, align 8
  %13 = getelementptr inbounds i8, ptr %1, i64 8
  %14 = load ptr, ptr %13, align 8
  %.not13 = icmp eq ptr %12, %14
  br i1 %.not13, label %._crit_edge, label %.lr.ph

.lr.ph:                                           ; preds = %5
  %15 = getelementptr inbounds i8, ptr %6, i64 8
  br label %16

16:                                               ; preds = %.lr.ph, %_ZNSt3mapIPK8AstIfaceP10AstSenTreeSt4lessIS2_ESaISt4pairIKS2_S4_EEE7emplaceIJS7_IS2_S4_EEEES7_ISt17_Rb_tree_iteratorIS9_EbEDpOT_.exit
  %.015 = phi i64 [ %3, %.lr.ph ], [ %22, %_ZNSt3mapIPK8AstIfaceP10AstSenTreeSt4lessIS2_ESaISt4pairIKS2_S4_EEE7emplaceIJS7_IS2_S4_EEEES7_ISt17_Rb_tree_iteratorIS9_EbEDpOT_.exit ]
  %.sroa.010.014 = phi ptr [ %12, %.lr.ph ], [ %23, %_ZNSt3mapIPK8AstIfaceP10AstSenTreeSt4lessIS2_ESaISt4pairIKS2_S4_EEE7emplaceIJS7_IS2_S4_EEEES7_ISt17_Rb_tree_iteratorIS9_EbEDpOT_.exit ]
  %17 = trunc i64 %.015 to i32
  %18 = invoke fastcc noundef ptr @_ZN7V3Sched12_GLOBAL__N_120createTriggerSenTreeEP10AstNetlistP11AstVarScopej(ptr noundef %2, ptr noundef %4, i32 noundef %17)
          to label %19 unwind label %24

19:                                               ; preds = %16
  %20 = load ptr, ptr %.sroa.010.014, align 8
  store ptr %20, ptr %6, align 8
  store ptr %18, ptr %15, align 8
  %21 = invoke { ptr, i8 } @_ZNSt8_Rb_treeIPK8AstIfaceSt4pairIKS2_P10AstSenTreeESt10_Select1stIS7_ESt4lessIS2_ESaIS7_EE17_M_emplace_uniqueIJS3_IS2_S6_EEEES3_ISt17_Rb_tree_iteratorIS7_EbEDpOT_(ptr noundef nonnull align 8 dereferenceable(48) %0, ptr noundef nonnull align 8 dereferenceable(16) %6)
          to label %_ZNSt3mapIPK8AstIfaceP10AstSenTreeSt4lessIS2_ESaISt4pairIKS2_S4_EEE7emplaceIJS7_IS2_S4_EEEES7_ISt17_Rb_tree_iteratorIS9_EbEDpOT_.exit unwind label %24

_ZNSt3mapIPK8AstIfaceP10AstSenTreeSt4lessIS2_ESaISt4pairIKS2_S4_EEE7emplaceIJS7_IS2_S4_EEEES7_ISt17_Rb_tree_iteratorIS9_EbEDpOT_.exit: ; preds = %19
  %22 = add i64 %.015, 1
  %23 = getelementptr inbounds i8, ptr %.sroa.010.014, i64 16
  %.not = icmp eq ptr %23, %14
  br i1 %.not, label %._crit_edge, label %16

24:                                               ; preds = %19, %16
  %25 = landingpad { ptr, i32 }
          cleanup
  call void @_ZNSt3mapIPK8AstIfaceP10AstSenTreeSt4lessIS2_ESaISt4pairIKS2_S4_EEED2Ev(ptr noundef nonnull align 8 dereferenceable(48) %0) #24
  resume { ptr, i32 } %25

._crit_edge:                                      ; preds = %_ZNSt3mapIPK8AstIfaceP10AstSenTreeSt4lessIS2_ESaISt4pairIKS2_S4_EEE7emplaceIJS7_IS2_S4_EEEES7_ISt17_Rb_tree_iteratorIS9_EbEDpOT_.exit, %5
  ret void
}